; Function Attrs: nounwind uwtable
define void @KINProcessError(ptr noundef readonly captures(address_is_null) %0, i32 noundef %1, ptr noundef %2, ptr noundef %3, ptr noundef readonly captures(none) %4, ...) local_unnamed_addr #0 {
  %6 = alloca [1 x %struct.__va_list_tag], align 16
  %7 = alloca [256 x i8], align 16
  call void @llvm.lifetime.start.p0(i64 24, ptr nonnull %6) #14
  call void @llvm.lifetime.start.p0(i64 256, ptr nonnull %7) #14
  call void @llvm.va_start.p0(ptr nonnull %6)
  %8 = call i32 @vsprintf(ptr noundef nonnull %7, ptr noundef %4, ptr noundef nonnull %6) #14
  %9 = icmp eq ptr %0, null
  br i1 %9, label %10, label %15

10:                                               ; preds = %5
  %11 = load ptr, ptr @stderr, align 8, !tbaa !17
  %12 = call i32 (ptr, ptr, ...) @fprintf(ptr noundef %11, ptr noundef nonnull @.str.36, ptr noundef %2, ptr noundef %3) #15
  %13 = load ptr, ptr @stderr, align 8, !tbaa !17
  %14 = call i32 (ptr, ptr, ...) @fprintf(ptr noundef %13, ptr noundef nonnull @.str.37, ptr noundef nonnull %7) #15
  br label %20

15:                                               ; preds = %5
  %16 = getelementptr inbounds nuw i8, ptr %0, i64 584
  %17 = load ptr, ptr %16, align 8, !tbaa !15
  %18 = getelementptr inbounds nuw i8, ptr %0, i64 592
  %19 = load ptr, ptr %18, align 8, !tbaa !16
  call void %17(i32 noundef %1, ptr noundef %2, ptr noundef %3, ptr noundef nonnull %7, ptr noundef %19) #14
  br label %20

20:                                               ; preds = %15, %10
  call void @llvm.va_end.p0(ptr nonnull %6)
  call void @llvm.lifetime.end.p0(i64 256, ptr nonnull %7) #14
  call void @llvm.lifetime.end.p0(i64 24, ptr nonnull %6) #14
  ret void
}